target datalayout = "e-m:e-p270:32:32-p271:32:32-p272:64:64-i64:64-i128:128-f80:128-n8:16:32:64-S128"
target triple = "x86_64-pc-linux-gnu"

%struct.YUV2RGBParam = type { i8, i16, i16, i16, i16, i16 }

; Function Attrs: nounwind uwtable
define internal zeroext i8 @clampU8(i32 noundef %0) #0 {
  %2 = alloca i32, align 4
  store i32 %0, ptr %2, align 4
  %3 = load i32, ptr %2, align 4
  %4 = add nsw i32 %3, 8192
  %5 = ashr i32 %4, 6
  %6 = and i32 %5, 511
  %7 = sext i32 %6 to i64
  %8 = getelementptr inbounds [512 x i8], ptr @clampU8.lut, i64 0, i64 %7
  %9 = load i8, ptr %8, align 1
  ret i8 %9
}

; Function Attrs: nounwind uwtable
define hidden void @yuv422_rgba_std(i32 noundef %0, i32 noundef %1, ptr noundef %2, ptr noundef %3, ptr noundef %4, i32 noundef %5, i32 noundef %6, ptr noundef %7, i32 noundef %8, i32 noundef %9) #0 {
  %11 = alloca i32, align 4
  %12 = alloca i32, align 4
  %13 = alloca ptr, align 8
  %14 = alloca ptr, align 8
  %15 = alloca ptr, align 8
  %16 = alloca i32, align 4
  %17 = alloca i32, align 4
  %18 = alloca ptr, align 8
  %19 = alloca i32, align 4
  %20 = alloca i32, align 4
  %21 = alloca ptr, align 8
  %22 = alloca i32, align 4
  %23 = alloca i32, align 4
  %24 = alloca ptr, align 8
  %25 = alloca ptr, align 8
  %26 = alloca ptr, align 8
  %27 = alloca ptr, align 8
  %28 = alloca i32, align 4
  %29 = alloca i32, align 4
  %30 = alloca i32, align 4
  %31 = alloca i32, align 4
  %32 = alloca i32, align 4
  %33 = alloca i32, align 4
  %34 = alloca i32, align 4
  %35 = alloca i32, align 4
  %36 = alloca i32, align 4
  %37 = alloca i32, align 4
  %38 = alloca i32, align 4
  %39 = alloca i32, align 4
  store i32 %0, ptr %11, align 4
  store i32 %1, ptr %12, align 4
  store ptr %2, ptr %13, align 8
  store ptr %3, ptr %14, align 8
  store ptr %4, ptr %15, align 8
  store i32 %5, ptr %16, align 4
  store i32 %6, ptr %17, align 4
  store ptr %7, ptr %18, align 8
  store i32 %8, ptr %19, align 4
  store i32 %9, ptr %20, align 4
  call void @llvm.lifetime.start.p0(i64 8, ptr %21) #2
  %40 = load i32, ptr %20, align 4
  %41 = zext i32 %40 to i64
  %42 = getelementptr inbounds nuw [5 x %struct.YUV2RGBParam], ptr @YUV2RGB, i64 0, i64 %41
  store ptr %42, ptr %21, align 8
  %43 = load i32, ptr %16, align 4
  %44 = zext i32 %43 to i64
  %45 = udiv i64 %44, 1
  %46 = trunc i64 %45 to i32
  store i32 %46, ptr %16, align 4
  %47 = load i32, ptr %17, align 4
  %48 = zext i32 %47 to i64
  %49 = udiv i64 %48, 1
  %50 = trunc i64 %49 to i32
  store i32 %50, ptr %17, align 4
  call void @llvm.lifetime.start.p0(i64 4, ptr %22) #2
  call void @llvm.lifetime.start.p0(i64 4, ptr %23) #2
  store i32 0, ptr %23, align 4
  br label %51

51:                                               ; preds = %285, %10
  %52 = load i32, ptr %23, align 4
  %53 = load i32, ptr %12, align 4
  %54 = sub i32 %53, 0
  %55 = icmp ult i32 %52, %54
  br i1 %55, label %56, label %288

56:                                               ; preds = %51
  call void @llvm.lifetime.start.p0(i64 8, ptr %24) #2
  %57 = load ptr, ptr %13, align 8
  %58 = load i32, ptr %23, align 4
  %59 = load i32, ptr %16, align 4
  %60 = mul i32 %58, %59
  %61 = zext i32 %60 to i64
  %62 = getelementptr inbounds nuw i8, ptr %57, i64 %61
  store ptr %62, ptr %24, align 8
  call void @llvm.lifetime.start.p0(i64 8, ptr %25) #2
  %63 = load ptr, ptr %14, align 8
  %64 = load i32, ptr %23, align 4
  %65 = udiv i32 %64, 1
  %66 = load i32, ptr %17, align 4
  %67 = mul i32 %65, %66
  %68 = zext i32 %67 to i64
  %69 = getelementptr inbounds nuw i8, ptr %63, i64 %68
  store ptr %69, ptr %25, align 8
  call void @llvm.lifetime.start.p0(i64 8, ptr %26) #2
  %70 = load ptr, ptr %15, align 8
  %71 = load i32, ptr %23, align 4
  %72 = udiv i32 %71, 1
  %73 = load i32, ptr %17, align 4
  %74 = mul i32 %72, %73
  %75 = zext i32 %74 to i64
  %76 = getelementptr inbounds nuw i8, ptr %70, i64 %75
  store ptr %76, ptr %26, align 8
  call void @llvm.lifetime.start.p0(i64 8, ptr %27) #2
  %77 = load ptr, ptr %18, align 8
  %78 = load i32, ptr %23, align 4
  %79 = load i32, ptr %19, align 4
  %80 = mul i32 %78, %79
  %81 = zext i32 %80 to i64
  %82 = getelementptr inbounds nuw i8, ptr %77, i64 %81
  store ptr %82, ptr %27, align 8
  store i32 0, ptr %22, align 4
  br label %83

83:                                               ; preds = %204, %56
  %84 = load i32, ptr %22, align 4
  %85 = load i32, ptr %11, align 4
  %86 = sub i32 %85, 1
  %87 = icmp ult i32 %84, %86
  br i1 %87, label %88, label %207

88:                                               ; preds = %83
  call void @llvm.lifetime.start.p0(i64 4, ptr %28) #2
  %89 = load ptr, ptr %25, align 8
  %90 = load i8, ptr %89, align 1
  %91 = zext i8 %90 to i32
  %92 = sub nsw i32 %91, 128
  store i32 %92, ptr %28, align 4
  call void @llvm.lifetime.start.p0(i64 4, ptr %29) #2
  %93 = load ptr, ptr %26, align 8
  %94 = load i8, ptr %93, align 1
  %95 = zext i8 %94 to i32
  %96 = sub nsw i32 %95, 128
  store i32 %96, ptr %29, align 4
  call void @llvm.lifetime.start.p0(i64 4, ptr %30) #2
  %97 = load i32, ptr %29, align 4
  %98 = load ptr, ptr %21, align 8
  %99 = getelementptr inbounds nuw %struct.YUV2RGBParam, ptr %98, i32 0, i32 2
  %100 = load i16, ptr %99, align 2
  %101 = sext i16 %100 to i32
  %102 = mul nsw i32 %97, %101
  store i32 %102, ptr %30, align 4
  call void @llvm.lifetime.start.p0(i64 4, ptr %31) #2
  %103 = load i32, ptr %28, align 4
  %104 = load ptr, ptr %21, align 8
  %105 = getelementptr inbounds nuw %struct.YUV2RGBParam, ptr %104, i32 0, i32 3
  %106 = load i16, ptr %105, align 2
  %107 = sext i16 %106 to i32
  %108 = mul nsw i32 %103, %107
  %109 = load i32, ptr %29, align 4
  %110 = load ptr, ptr %21, align 8
  %111 = getelementptr inbounds nuw %struct.YUV2RGBParam, ptr %110, i32 0, i32 4
  %112 = load i16, ptr %111, align 2
  %113 = sext i16 %112 to i32
  %114 = mul nsw i32 %109, %113
  %115 = add nsw i32 %108, %114
  store i32 %115, ptr %31, align 4
  call void @llvm.lifetime.start.p0(i64 4, ptr %32) #2
  %116 = load i32, ptr %28, align 4
  %117 = load ptr, ptr %21, align 8
  %118 = getelementptr inbounds nuw %struct.YUV2RGBParam, ptr %117, i32 0, i32 5
  %119 = load i16, ptr %118, align 2
  %120 = sext i16 %119 to i32
  %121 = mul nsw i32 %116, %120
  store i32 %121, ptr %32, align 4
  call void @llvm.lifetime.start.p0(i64 4, ptr %33) #2
  %122 = load ptr, ptr %24, align 8
  %123 = getelementptr inbounds i8, ptr %122, i64 0
  %124 = load i8, ptr %123, align 1
  %125 = zext i8 %124 to i32
  %126 = load ptr, ptr %21, align 8
  %127 = getelementptr inbounds nuw %struct.YUV2RGBParam, ptr %126, i32 0, i32 0
  %128 = load i8, ptr %127, align 2
  %129 = zext i8 %128 to i32
  %130 = sub nsw i32 %125, %129
  %131 = load ptr, ptr %21, align 8
  %132 = getelementptr inbounds nuw %struct.YUV2RGBParam, ptr %131, i32 0, i32 1
  %133 = load i16, ptr %132, align 2
  %134 = sext i16 %133 to i32
  %135 = mul nsw i32 %130, %134
  store i32 %135, ptr %33, align 4
  %136 = load i32, ptr %33, align 4
  %137 = load i32, ptr %30, align 4
  %138 = add nsw i32 %136, %137
  %139 = call zeroext i8 @clampU8(i32 noundef %138)
  %140 = zext i8 %139 to i32
  %141 = shl i32 %140, 24
  %142 = load i32, ptr %33, align 4
  %143 = load i32, ptr %31, align 4
  %144 = add nsw i32 %142, %143
  %145 = call zeroext i8 @clampU8(i32 noundef %144)
  %146 = zext i8 %145 to i32
  %147 = shl i32 %146, 16
  %148 = or i32 %141, %147
  %149 = load i32, ptr %33, align 4
  %150 = load i32, ptr %32, align 4
  %151 = add nsw i32 %149, %150
  %152 = call zeroext i8 @clampU8(i32 noundef %151)
  %153 = zext i8 %152 to i32
  %154 = shl i32 %153, 8
  %155 = or i32 %148, %154
  %156 = or i32 %155, 255
  %157 = load ptr, ptr %27, align 8
  store i32 %156, ptr %157, align 4
  %158 = load ptr, ptr %27, align 8
  %159 = getelementptr inbounds i8, ptr %158, i64 4
  store ptr %159, ptr %27, align 8
  %160 = load ptr, ptr %24, align 8
  %161 = getelementptr inbounds i8, ptr %160, i64 2
  %162 = load i8, ptr %161, align 1
  %163 = zext i8 %162 to i32
  %164 = load ptr, ptr %21, align 8
  %165 = getelementptr inbounds nuw %struct.YUV2RGBParam, ptr %164, i32 0, i32 0
  %166 = load i8, ptr %165, align 2
  %167 = zext i8 %166 to i32
  %168 = sub nsw i32 %163, %167
  %169 = load ptr, ptr %21, align 8
  %170 = getelementptr inbounds nuw %struct.YUV2RGBParam, ptr %169, i32 0, i32 1
  %171 = load i16, ptr %170, align 2
  %172 = sext i16 %171 to i32
  %173 = mul nsw i32 %168, %172
  store i32 %173, ptr %33, align 4
  %174 = load i32, ptr %33, align 4
  %175 = load i32, ptr %30, align 4
  %176 = add nsw i32 %174, %175
  %177 = call zeroext i8 @clampU8(i32 noundef %176)
  %178 = zext i8 %177 to i32
  %179 = shl i32 %178, 24
  %180 = load i32, ptr %33, align 4
  %181 = load i32, ptr %31, align 4
  %182 = add nsw i32 %180, %181
  %183 = call zeroext i8 @clampU8(i32 noundef %182)
  %184 = zext i8 %183 to i32
  %185 = shl i32 %184, 16
  %186 = or i32 %179, %185
  %187 = load i32, ptr %33, align 4
  %188 = load i32, ptr %32, align 4
  %189 = add nsw i32 %187, %188
  %190 = call zeroext i8 @clampU8(i32 noundef %189)
  %191 = zext i8 %190 to i32
  %192 = shl i32 %191, 8
  %193 = or i32 %186, %192
  %194 = or i32 %193, 255
  %195 = load ptr, ptr %27, align 8
  store i32 %194, ptr %195, align 4
  %196 = load ptr, ptr %27, align 8
  %197 = getelementptr inbounds i8, ptr %196, i64 4
  store ptr %197, ptr %27, align 8
  %198 = load ptr, ptr %24, align 8
  %199 = getelementptr inbounds i8, ptr %198, i64 4
  store ptr %199, ptr %24, align 8
  %200 = load ptr, ptr %25, align 8
  %201 = getelementptr inbounds i8, ptr %200, i64 4
  store ptr %201, ptr %25, align 8
  %202 = load ptr, ptr %26, align 8
  %203 = getelementptr inbounds i8, ptr %202, i64 4
  store ptr %203, ptr %26, align 8
  call void @llvm.lifetime.end.p0(i64 4, ptr %33) #2
  call void @llvm.lifetime.end.p0(i64 4, ptr %32) #2
  call void @llvm.lifetime.end.p0(i64 4, ptr %31) #2
  call void @llvm.lifetime.end.p0(i64 4, ptr %30) #2
  call void @llvm.lifetime.end.p0(i64 4, ptr %29) #2
  call void @llvm.lifetime.end.p0(i64 4, ptr %28) #2
  br label %204

204:                                              ; preds = %88
  %205 = load i32, ptr %22, align 4
  %206 = add i32 %205, 2
  store i32 %206, ptr %22, align 4
  br label %83, !llvm.loop !26

207:                                              ; preds = %83
  %208 = load i32, ptr %22, align 4
  %209 = load i32, ptr %11, align 4
  %210 = sub i32 %209, 1
  %211 = icmp eq i32 %208, %210
  br i1 %211, label %212, label %284

212:                                              ; preds = %207
  call void @llvm.lifetime.start.p0(i64 4, ptr %34) #2
  %213 = load ptr, ptr %25, align 8
  %214 = load i8, ptr %213, align 1
  %215 = zext i8 %214 to i32
  %216 = sub nsw i32 %215, 128
  store i32 %216, ptr %34, align 4
  call void @llvm.lifetime.start.p0(i64 4, ptr %35) #2
  %217 = load ptr, ptr %26, align 8
  %218 = load i8, ptr %217, align 1
  %219 = zext i8 %218 to i32
  %220 = sub nsw i32 %219, 128
  store i32 %220, ptr %35, align 4
  call void @llvm.lifetime.start.p0(i64 4, ptr %36) #2
  %221 = load i32, ptr %35, align 4
  %222 = load ptr, ptr %21, align 8
  %223 = getelementptr inbounds nuw %struct.YUV2RGBParam, ptr %222, i32 0, i32 2
  %224 = load i16, ptr %223, align 2
  %225 = sext i16 %224 to i32
  %226 = mul nsw i32 %221, %225
  store i32 %226, ptr %36, align 4
  call void @llvm.lifetime.start.p0(i64 4, ptr %37) #2
  %227 = load i32, ptr %34, align 4
  %228 = load ptr, ptr %21, align 8
  %229 = getelementptr inbounds nuw %struct.YUV2RGBParam, ptr %228, i32 0, i32 3
  %230 = load i16, ptr %229, align 2
  %231 = sext i16 %230 to i32
  %232 = mul nsw i32 %227, %231
  %233 = load i32, ptr %35, align 4
  %234 = load ptr, ptr %21, align 8
  %235 = getelementptr inbounds nuw %struct.YUV2RGBParam, ptr %234, i32 0, i32 4
  %236 = load i16, ptr %235, align 2
  %237 = sext i16 %236 to i32
  %238 = mul nsw i32 %233, %237
  %239 = add nsw i32 %232, %238
  store i32 %239, ptr %37, align 4
  call void @llvm.lifetime.start.p0(i64 4, ptr %38) #2
  %240 = load i32, ptr %34, align 4
  %241 = load ptr, ptr %21, align 8
  %242 = getelementptr inbounds nuw %struct.YUV2RGBParam, ptr %241, i32 0, i32 5
  %243 = load i16, ptr %242, align 2
  %244 = sext i16 %243 to i32
  %245 = mul nsw i32 %240, %244
  store i32 %245, ptr %38, align 4
  call void @llvm.lifetime.start.p0(i64 4, ptr %39) #2
  %246 = load ptr, ptr %24, align 8
  %247 = getelementptr inbounds i8, ptr %246, i64 0
  %248 = load i8, ptr %247, align 1
  %249 = zext i8 %248 to i32
  %250 = load ptr, ptr %21, align 8
  %251 = getelementptr inbounds nuw %struct.YUV2RGBParam, ptr %250, i32 0, i32 0
  %252 = load i8, ptr %251, align 2
  %253 = zext i8 %252 to i32
  %254 = sub nsw i32 %249, %253
  %255 = load ptr, ptr %21, align 8
  %256 = getelementptr inbounds nuw %struct.YUV2RGBParam, ptr %255, i32 0, i32 1
  %257 = load i16, ptr %256, align 2
  %258 = sext i16 %257 to i32
  %259 = mul nsw i32 %254, %258
  store i32 %259, ptr %39, align 4
  %260 = load i32, ptr %39, align 4
  %261 = load i32, ptr %36, align 4
  %262 = add nsw i32 %260, %261
  %263 = call zeroext i8 @clampU8(i32 noundef %262)
  %264 = zext i8 %263 to i32
  %265 = shl i32 %264, 24
  %266 = load i32, ptr %39, align 4
  %267 = load i32, ptr %37, align 4
  %268 = add nsw i32 %266, %267
  %269 = call zeroext i8 @clampU8(i32 noundef %268)
  %270 = zext i8 %269 to i32
  %271 = shl i32 %270, 16
  %272 = or i32 %265, %271
  %273 = load i32, ptr %39, align 4
  %274 = load i32, ptr %38, align 4
  %275 = add nsw i32 %273, %274
  %276 = call zeroext i8 @clampU8(i32 noundef %275)
  %277 = zext i8 %276 to i32
  %278 = shl i32 %277, 8
  %279 = or i32 %272, %278
  %280 = or i32 %279, 255
  %281 = load ptr, ptr %27, align 8
  store i32 %280, ptr %281, align 4
  %282 = load ptr, ptr %27, align 8
  %283 = getelementptr inbounds i8, ptr %282, i64 4
  store ptr %283, ptr %27, align 8
  call void @llvm.lifetime.end.p0(i64 4, ptr %39) #2
  call void @llvm.lifetime.end.p0(i64 4, ptr %38) #2
  call void @llvm.lifetime.end.p0(i64 4, ptr %37) #2
  call void @llvm.lifetime.end.p0(i64 4, ptr %36) #2
  call void @llvm.lifetime.end.p0(i64 4, ptr %35) #2
  call void @llvm.lifetime.end.p0(i64 4, ptr %34) #2
  br label %284

284:                                              ; preds = %212, %207
  call void @llvm.lifetime.end.p0(i64 8, ptr %27) #2
  call void @llvm.lifetime.end.p0(i64 8, ptr %26) #2
  call void @llvm.lifetime.end.p0(i64 8, ptr %25) #2
  call void @llvm.lifetime.end.p0(i64 8, ptr %24) #2
  br label %285

285:                                              ; preds = %284
  %286 = load i32, ptr %23, align 4
  %287 = add i32 %286, 1
  store i32 %287, ptr %23, align 4
  br label %51, !llvm.loop !27

288:                                              ; preds = %51
  call void @llvm.lifetime.end.p0(i64 4, ptr %23) #2
  call void @llvm.lifetime.end.p0(i64 4, ptr %22) #2
  call void @llvm.lifetime.end.p0(i64 8, ptr %21) #2
  ret void
}