; Function Attrs: nofree norecurse nosync nounwind memory(argmem: readwrite) uwtable
define hidden void @yuv422_rgba_std(i32 noundef %0, i32 noundef %1, ptr noundef readonly captures(none) %2, ptr noundef readonly captures(none) %3, ptr noundef readonly captures(none) %4, i32 noundef %5, i32 noundef %6, ptr noundef writeonly captures(none) %7, i32 noundef %8, i32 noundef %9) local_unnamed_addr #0 {
  %11 = zext i32 %9 to i64
  %12 = getelementptr inbounds nuw [5 x %struct.YUV2RGBParam], ptr @YUV2RGB, i64 0, i64 %11
  %.not = icmp eq i32 %1, 0
  br i1 %.not, label %._crit_edge97, label %.lr.ph96

.lr.ph96:                                         ; preds = %10
  %13 = add i32 %0, -1
  %.not98 = icmp eq i32 %13, 0
  %14 = getelementptr inbounds nuw i8, ptr %12, i64 4
  %15 = getelementptr inbounds nuw i8, ptr %12, i64 6
  %16 = getelementptr inbounds nuw i8, ptr %12, i64 8
  %17 = getelementptr inbounds nuw i8, ptr %12, i64 10
  %18 = getelementptr inbounds nuw i8, ptr %12, i64 2
  %19 = and i32 %0, -2
  %wide.trip.count = zext i32 %1 to i64
  %20 = icmp eq i32 %19, %13
  br label %21

21:                                               ; preds = %.lr.ph96, %185
  %indvars.iv = phi i64 [ 0, %.lr.ph96 ], [ %indvars.iv.next, %185 ]
  %22 = trunc nuw i64 %indvars.iv to i32
  %23 = mul i32 %5, %22
  %24 = zext i32 %23 to i64
  %25 = getelementptr inbounds nuw i8, ptr %2, i64 %24
  %26 = mul i32 %6, %22
  %27 = zext i32 %26 to i64
  %28 = getelementptr inbounds nuw i8, ptr %3, i64 %27
  %29 = getelementptr inbounds nuw i8, ptr %4, i64 %27
  %30 = mul i32 %8, %22
  %31 = zext i32 %30 to i64
  %32 = getelementptr inbounds nuw i8, ptr %7, i64 %31
  br i1 %.not98, label %._crit_edge, label %.lr.ph

.lr.ph:                                           ; preds = %21
  %33 = load i16, ptr %14, align 4
  %34 = zext i16 %33 to i32
  %35 = load i16, ptr %15, align 2
  %36 = zext i16 %35 to i32
  %37 = load i16, ptr %16, align 4
  %38 = zext i16 %37 to i32
  %39 = load i16, ptr %17, align 2
  %40 = zext i16 %39 to i32
  %41 = load i8, ptr %12, align 4
  %42 = zext i8 %41 to i32
  %43 = load i16, ptr %18, align 2
  %44 = zext i16 %43 to i32
  br label %45

45:                                               ; preds = %.lr.ph, %45
  %.088 = phi i32 [ 0, %.lr.ph ], [ %127, %45 ]
  %.07987 = phi ptr [ %25, %.lr.ph ], [ %124, %45 ]
  %.08086 = phi ptr [ %28, %.lr.ph ], [ %125, %45 ]
  %.08185 = phi ptr [ %29, %.lr.ph ], [ %126, %45 ]
  %.08284 = phi ptr [ %32, %.lr.ph ], [ %123, %45 ]
  %46 = load i8, ptr %.08086, align 1
  %47 = zext i8 %46 to i32
  %48 = add nsw i32 %47, -128
  %49 = load i8, ptr %.08185, align 1
  %50 = zext i8 %49 to i32
  %51 = add nsw i32 %50, -128
  %52 = mul nsw i32 %51, %34
  %53 = mul nsw i32 %48, %36
  %54 = mul nsw i32 %51, %38
  %55 = add nsw i32 %54, %53
  %56 = mul nsw i32 %48, %40
  %57 = load i8, ptr %.07987, align 1
  %58 = zext i8 %57 to i32
  %59 = sub nsw i32 %58, %42
  %60 = mul nsw i32 %59, %44
  %61 = add nsw i32 %60, 8192
  %62 = add nsw i32 %61, %52
  %63 = lshr i32 %62, 6
  %64 = and i32 %63, 511
  %65 = zext nneg i32 %64 to i64
  %66 = getelementptr inbounds nuw [512 x i8], ptr @clampU8.lut, i64 0, i64 %65
  %67 = load i8, ptr %66, align 1
  %68 = zext i8 %67 to i32
  %69 = shl nuw i32 %68, 24
  %70 = add nsw i32 %61, %55
  %71 = lshr i32 %70, 6
  %72 = and i32 %71, 511
  %73 = zext nneg i32 %72 to i64
  %74 = getelementptr inbounds nuw [512 x i8], ptr @clampU8.lut, i64 0, i64 %73
  %75 = load i8, ptr %74, align 1
  %76 = zext i8 %75 to i32
  %77 = shl nuw nsw i32 %76, 16
  %78 = add nsw i32 %61, %56
  %79 = lshr i32 %78, 6
  %80 = and i32 %79, 511
  %81 = zext nneg i32 %80 to i64
  %82 = getelementptr inbounds nuw [512 x i8], ptr @clampU8.lut, i64 0, i64 %81
  %83 = load i8, ptr %82, align 1
  %84 = zext i8 %83 to i32
  %85 = shl nuw nsw i32 %84, 8
  %86 = or disjoint i32 %69, %77
  %87 = or disjoint i32 %86, %85
  %88 = or disjoint i32 %87, 255
  store i32 %88, ptr %.08284, align 4
  %89 = getelementptr inbounds nuw i8, ptr %.08284, i64 4
  %90 = getelementptr inbounds nuw i8, ptr %.07987, i64 2
  %91 = load i8, ptr %90, align 1
  %92 = zext i8 %91 to i32
  %93 = sub nsw i32 %92, %42
  %94 = mul nsw i32 %93, %44
  %95 = add nsw i32 %94, 8192
  %96 = add nsw i32 %95, %52
  %97 = lshr i32 %96, 6
  %98 = and i32 %97, 511
  %99 = zext nneg i32 %98 to i64
  %100 = getelementptr inbounds nuw [512 x i8], ptr @clampU8.lut, i64 0, i64 %99
  %101 = load i8, ptr %100, align 1
  %102 = zext i8 %101 to i32
  %103 = shl nuw i32 %102, 24
  %104 = add nsw i32 %95, %55
  %105 = lshr i32 %104, 6
  %106 = and i32 %105, 511
  %107 = zext nneg i32 %106 to i64
  %108 = getelementptr inbounds nuw [512 x i8], ptr @clampU8.lut, i64 0, i64 %107
  %109 = load i8, ptr %108, align 1
  %110 = zext i8 %109 to i32
  %111 = shl nuw nsw i32 %110, 16
  %112 = add nsw i32 %95, %56
  %113 = lshr i32 %112, 6
  %114 = and i32 %113, 511
  %115 = zext nneg i32 %114 to i64
  %116 = getelementptr inbounds nuw [512 x i8], ptr @clampU8.lut, i64 0, i64 %115
  %117 = load i8, ptr %116, align 1
  %118 = zext i8 %117 to i32
  %119 = shl nuw nsw i32 %118, 8
  %120 = or disjoint i32 %103, %111
  %121 = or disjoint i32 %120, %119
  %122 = or disjoint i32 %121, 255
  store i32 %122, ptr %89, align 4
  %123 = getelementptr inbounds nuw i8, ptr %.08284, i64 8
  %124 = getelementptr inbounds nuw i8, ptr %.07987, i64 4
  %125 = getelementptr inbounds nuw i8, ptr %.08086, i64 4
  %126 = getelementptr inbounds nuw i8, ptr %.08185, i64 4
  %127 = add nuw i32 %.088, 2
  %128 = icmp ult i32 %127, %13
  br i1 %128, label %45, label %._crit_edge, !llvm.loop !26

._crit_edge:                                      ; preds = %45, %21
  %.082.lcssa = phi ptr [ %32, %21 ], [ %123, %45 ]
  %.081.lcssa = phi ptr [ %29, %21 ], [ %126, %45 ]
  %.080.lcssa = phi ptr [ %28, %21 ], [ %125, %45 ]
  %.079.lcssa = phi ptr [ %25, %21 ], [ %124, %45 ]
  br i1 %20, label %129, label %185

129:                                              ; preds = %._crit_edge
  %130 = load i8, ptr %.080.lcssa, align 1
  %131 = zext i8 %130 to i32
  %132 = add nsw i32 %131, -128
  %133 = load i8, ptr %.081.lcssa, align 1
  %134 = zext i8 %133 to i32
  %135 = add nsw i32 %134, -128
  %136 = load i16, ptr %14, align 4
  %137 = zext i16 %136 to i32
  %138 = mul nsw i32 %135, %137
  %139 = load i16, ptr %15, align 2
  %140 = zext i16 %139 to i32
  %141 = mul nsw i32 %132, %140
  %142 = load i16, ptr %16, align 4
  %143 = zext i16 %142 to i32
  %144 = mul nsw i32 %135, %143
  %145 = load i16, ptr %17, align 2
  %146 = zext i16 %145 to i32
  %147 = mul nsw i32 %132, %146
  %148 = load i8, ptr %.079.lcssa, align 1
  %149 = zext i8 %148 to i32
  %150 = load i8, ptr %12, align 4
  %151 = zext i8 %150 to i32
  %152 = sub nsw i32 %149, %151
  %153 = load i16, ptr %18, align 2
  %154 = zext i16 %153 to i32
  %155 = mul nsw i32 %152, %154
  %156 = add nsw i32 %155, 8192
  %157 = add nsw i32 %156, %138
  %158 = lshr i32 %157, 6
  %159 = and i32 %158, 511
  %160 = zext nneg i32 %159 to i64
  %161 = getelementptr inbounds nuw [512 x i8], ptr @clampU8.lut, i64 0, i64 %160
  %162 = load i8, ptr %161, align 1
  %163 = zext i8 %162 to i32
  %164 = shl nuw i32 %163, 24
  %165 = add nsw i32 %156, %141
  %166 = add nsw i32 %165, %144
  %167 = lshr i32 %166, 6
  %168 = and i32 %167, 511
  %169 = zext nneg i32 %168 to i64
  %170 = getelementptr inbounds nuw [512 x i8], ptr @clampU8.lut, i64 0, i64 %169
  %171 = load i8, ptr %170, align 1
  %172 = zext i8 %171 to i32
  %173 = shl nuw nsw i32 %172, 16
  %174 = add nsw i32 %156, %147
  %175 = lshr i32 %174, 6
  %176 = and i32 %175, 511
  %177 = zext nneg i32 %176 to i64
  %178 = getelementptr inbounds nuw [512 x i8], ptr @clampU8.lut, i64 0, i64 %177
  %179 = load i8, ptr %178, align 1
  %180 = zext i8 %179 to i32
  %181 = shl nuw nsw i32 %180, 8
  %182 = or disjoint i32 %164, %173
  %183 = or disjoint i32 %182, %181
  %184 = or disjoint i32 %183, 255
  store i32 %184, ptr %.082.lcssa, align 4
  br label %185

185:                                              ; preds = %129, %._crit_edge
  %indvars.iv.next = add nuw nsw i64 %indvars.iv, 1
  %exitcond.not = icmp eq i64 %indvars.iv.next, %wide.trip.count
  br i1 %exitcond.not, label %._crit_edge97, label %21, !llvm.loop !27

._crit_edge97:                                    ; preds = %185, %10
  ret void
}